target datalayout = "e-m:e-p270:32:32-p271:32:32-p272:64:64-i64:64-i128:128-f80:128-n8:16:32:64-S128"
target triple = "x86_64-pc-linux-gnu"

%struct.Kit_Graph_t_ = type { i32, i32, i32, i32, ptr, %struct.Kit_Edge_t_ }
%struct.Kit_Edge_t_ = type { i32 }
%struct.Kit_Node_t_ = type { %struct.Kit_Edge_t_, %struct.Kit_Edge_t_, %union.anon, i32 }
%union.anon = type { ptr }
%struct.Vec_Int_t_ = type { i32, i32, ptr }

; Function Attrs: inlinehint nounwind uwtable
define internal i32 @Vec_IntSize(ptr noundef %0) #7 {
  %2 = alloca ptr, align 8
  store ptr %0, ptr %2, align 8, !tbaa !26
  %3 = load ptr, ptr %2, align 8, !tbaa !26
  %4 = getelementptr inbounds nuw %struct.Vec_Int_t_, ptr %3, i32 0, i32 1
  %5 = load i32, ptr %4, align 4, !tbaa !28
  ret i32 %5
}

; Function Attrs: nounwind uwtable
define void @Kit_GraphFree(ptr noundef %0) #0 {
  %2 = alloca ptr, align 8
  store ptr %0, ptr %2, align 8, !tbaa !7
  %3 = load ptr, ptr %2, align 8, !tbaa !7
  %4 = getelementptr inbounds nuw %struct.Kit_Graph_t_, ptr %3, i32 0, i32 4
  %5 = load ptr, ptr %4, align 8, !tbaa !16
  %6 = icmp ne ptr %5, null
  br i1 %6, label %7, label %13

7:                                                ; preds = %1
  %8 = load ptr, ptr %2, align 8, !tbaa !7
  %9 = getelementptr inbounds nuw %struct.Kit_Graph_t_, ptr %8, i32 0, i32 4
  %10 = load ptr, ptr %9, align 8, !tbaa !16
  call void @free(ptr noundef %10) #13
  %11 = load ptr, ptr %2, align 8, !tbaa !7
  %12 = getelementptr inbounds nuw %struct.Kit_Graph_t_, ptr %11, i32 0, i32 4
  store ptr null, ptr %12, align 8, !tbaa !16
  br label %14

13:                                               ; preds = %1
  br label %14

14:                                               ; preds = %13, %7
  %15 = load ptr, ptr %2, align 8, !tbaa !7
  %16 = icmp ne ptr %15, null
  br i1 %16, label %17, label %19

17:                                               ; preds = %14
  %18 = load ptr, ptr %2, align 8, !tbaa !7
  call void @free(ptr noundef %18) #13
  store ptr null, ptr %2, align 8, !tbaa !7
  br label %20

19:                                               ; preds = %14
  br label %20

20:                                               ; preds = %19, %17
  ret void
}

; Function Attrs: inlinehint nounwind uwtable
define internal ptr @Kit_GraphNodeLast(ptr noundef %0) #7 {
  %2 = alloca ptr, align 8
  store ptr %0, ptr %2, align 8, !tbaa !7
  %3 = load ptr, ptr %2, align 8, !tbaa !7
  %4 = getelementptr inbounds nuw %struct.Kit_Graph_t_, ptr %3, i32 0, i32 4
  %5 = load ptr, ptr %4, align 8, !tbaa !16
  %6 = load ptr, ptr %2, align 8, !tbaa !7
  %7 = getelementptr inbounds nuw %struct.Kit_Graph_t_, ptr %6, i32 0, i32 2
  %8 = load i32, ptr %7, align 8, !tbaa !14
  %9 = sext i32 %8 to i64
  %10 = getelementptr inbounds %struct.Kit_Node_t_, ptr %5, i64 %9
  %11 = getelementptr inbounds %struct.Kit_Node_t_, ptr %10, i64 -1
  ret ptr %11
}

; Function Attrs: inlinehint nounwind uwtable
define internal i32 @Kit_GraphNodeNum(ptr noundef %0) #7 {
  %2 = alloca ptr, align 8
  store ptr %0, ptr %2, align 8, !tbaa !7
  %3 = load ptr, ptr %2, align 8, !tbaa !7
  %4 = getelementptr inbounds nuw %struct.Kit_Graph_t_, ptr %3, i32 0, i32 2
  %5 = load i32, ptr %4, align 8, !tbaa !14
  %6 = load ptr, ptr %2, align 8, !tbaa !7
  %7 = getelementptr inbounds nuw %struct.Kit_Graph_t_, ptr %6, i32 0, i32 1
  %8 = load i32, ptr %7, align 4, !tbaa !10
  %9 = sub nsw i32 %5, %8
  ret i32 %9
}

; Function Attrs: nounwind uwtable
define ptr @Kit_TruthToGraph(ptr noundef %0, i32 noundef %1, ptr noundef %2) #0 {
  %4 = alloca ptr, align 8
  %5 = alloca ptr, align 8
  %6 = alloca i32, align 4
  %7 = alloca ptr, align 8
  %8 = alloca ptr, align 8
  %9 = alloca i32, align 4
  %10 = alloca i32, align 4
  store ptr %0, ptr %5, align 8, !tbaa !24
  store i32 %1, ptr %6, align 4, !tbaa !3
  store ptr %2, ptr %7, align 8, !tbaa !26
  call void @llvm.lifetime.start.p0(i64 8, ptr %8) #13
  call void @llvm.lifetime.start.p0(i64 4, ptr %9) #13
  %11 = load ptr, ptr %5, align 8, !tbaa !24
  %12 = load i32, ptr %6, align 4, !tbaa !3
  %13 = load ptr, ptr %7, align 8, !tbaa !26
  %14 = call i32 @Kit_TruthIsop(ptr noundef %11, i32 noundef %12, ptr noundef %13, i32 noundef 1)
  store i32 %14, ptr %9, align 4, !tbaa !3
  %15 = load i32, ptr %9, align 4, !tbaa !3
  %16 = icmp eq i32 %15, -1
  br i1 %16, label %17, label %18

17:                                               ; preds = %3
  store ptr null, ptr %4, align 8
  store i32 1, ptr %10, align 4
  br label %30

18:                                               ; preds = %3
  %19 = load ptr, ptr %7, align 8, !tbaa !26
  %20 = call i32 @Vec_IntSize(ptr noundef %19)
  %21 = icmp sgt i32 %20, 65536
  br i1 %21, label %22, label %23

22:                                               ; preds = %18
  store ptr null, ptr %4, align 8
  store i32 1, ptr %10, align 4
  br label %30

23:                                               ; preds = %18
  %24 = load ptr, ptr %7, align 8, !tbaa !26
  %25 = load i32, ptr %9, align 4, !tbaa !3
  %26 = load i32, ptr %6, align 4, !tbaa !3
  %27 = load ptr, ptr %7, align 8, !tbaa !26
  %28 = call ptr @Kit_SopFactor(ptr noundef %24, i32 noundef %25, i32 noundef %26, ptr noundef %27)
  store ptr %28, ptr %8, align 8, !tbaa !7
  %29 = load ptr, ptr %8, align 8, !tbaa !7
  store ptr %29, ptr %4, align 8
  store i32 1, ptr %10, align 4
  br label %30

30:                                               ; preds = %23, %22, %17
  call void @llvm.lifetime.end.p0(i64 4, ptr %9) #13
  call void @llvm.lifetime.end.p0(i64 8, ptr %8) #13
  %31 = load ptr, ptr %4, align 8
  ret ptr %31
}

; Function Attrs: nounwind uwtable
define i32 @Kit_TruthStats(ptr noundef %0, i32 noundef %1, ptr noundef %2) #0 {
  %4 = alloca ptr, align 8
  %5 = alloca i32, align 4
  %6 = alloca ptr, align 8
  %7 = alloca ptr, align 8
  %8 = alloca i32, align 4
  %9 = alloca i32, align 4
  store ptr %0, ptr %4, align 8, !tbaa !24
  store i32 %1, ptr %5, align 4, !tbaa !3
  store ptr %2, ptr %6, align 8, !tbaa !26
  call void @llvm.lifetime.start.p0(i64 8, ptr %7) #13
  %10 = load ptr, ptr %4, align 8, !tbaa !24
  %11 = load i32, ptr %5, align 4, !tbaa !3
  %12 = load ptr, ptr %6, align 8, !tbaa !26
  %13 = call ptr @Kit_TruthToGraph(ptr noundef %10, i32 noundef %11, ptr noundef %12)
  store ptr %13, ptr %7, align 8, !tbaa !7
  call void @llvm.lifetime.start.p0(i64 4, ptr %8) #13
  %14 = load ptr, ptr %7, align 8, !tbaa !7
  %15 = call i32 @Kit_GraphNodeNum(ptr noundef %14)
  store i32 %15, ptr %8, align 4, !tbaa !3
  call void @llvm.lifetime.start.p0(i64 4, ptr %9) #13
  %16 = load ptr, ptr %7, align 8, !tbaa !7
  %17 = load ptr, ptr %7, align 8, !tbaa !7
  %18 = call ptr @Kit_GraphNodeLast(ptr noundef %17)
  %19 = call i32 @Kit_GraphLevelNum_rec(ptr noundef %16, ptr noundef %18)
  store i32 %19, ptr %9, align 4, !tbaa !3
  %20 = load ptr, ptr %7, align 8, !tbaa !7
  call void @Kit_GraphFree(ptr noundef %20)
  %21 = load i32, ptr %9, align 4, !tbaa !3
  %22 = shl i32 %21, 16
  %23 = load i32, ptr %8, align 4, !tbaa !3
  %24 = or i32 %22, %23
  call void @llvm.lifetime.end.p0(i64 4, ptr %9) #13
  call void @llvm.lifetime.end.p0(i64 4, ptr %8) #13
  call void @llvm.lifetime.end.p0(i64 8, ptr %7) #13
  ret i32 %24
}