; Function Attrs: nounwind uwtable
define i32 @Kit_TruthStats(ptr noundef %0, i32 noundef %1, ptr noundef %2) local_unnamed_addr #8 {
  %4 = tail call i32 @Kit_TruthIsop(ptr noundef %0, i32 noundef %1, ptr noundef %2, i32 noundef 1) #21
  %5 = icmp eq i32 %4, -1
  br i1 %5, label %Kit_GraphFree.exit, label %6

6:                                                ; preds = %3
  %7 = getelementptr i8, ptr %2, i64 4
  %.val.i = load i32, ptr %7, align 4, !tbaa !20
  %8 = icmp sgt i32 %.val.i, 65536
  br i1 %8, label %Kit_GraphFree.exit, label %9

9:                                                ; preds = %6
  %10 = tail call ptr @Kit_SopFactor(ptr noundef nonnull %2, i32 noundef %4, i32 noundef %1, ptr noundef nonnull %2) #21
  br label %Kit_GraphFree.exit

Kit_GraphFree.exit:                               ; preds = %3, %6, %9
  %.0.i = phi ptr [ %10, %9 ], [ null, %3 ], [ null, %6 ]
  %11 = getelementptr i8, ptr %.0.i, i64 4
  %.val = load i32, ptr %11, align 4, !tbaa !3
  %12 = getelementptr i8, ptr %.0.i, i64 8
  %.val8 = load i32, ptr %12, align 8, !tbaa !11
  %13 = getelementptr i8, ptr %.0.i, i64 16
  %.val10 = load ptr, ptr %13, align 8, !tbaa !13
  %14 = sext i32 %.val8 to i64
  %15 = getelementptr inbounds %struct.Kit_Node_t_, ptr %.val10, i64 %14
  %16 = getelementptr inbounds i8, ptr %15, i64 -24
  %17 = tail call i32 @Kit_GraphLevelNum_rec(ptr noundef %.0.i, ptr noundef nonnull %16)
  tail call void @free(ptr noundef nonnull %.val10) #21
  %18 = sub nsw i32 %.val8, %.val
  tail call void @free(ptr noundef nonnull %.0.i) #21
  %19 = shl i32 %17, 16
  %20 = or i32 %19, %18
  ret i32 %20
}